target datalayout = "e-m:e-p270:32:32-p271:32:32-p272:64:64-i64:64-i128:128-f80:128-n8:16:32:64-S128"
target triple = "x86_64-pc-linux-gnu"

%class.Type = type <{ ptr, ptr, i32, [4 x i8] }>
%class.TypePtr.base = type <{ %class.Type.base, [4 x i8], ptr, i32, i32, i32 }>
%class.Type.base = type <{ ptr, ptr, i32 }>
%class.TypeKlassPtr = type { %class.TypePtr.base, ptr, ptr }
%class.TypeAryKlassPtr = type { %class.TypeKlassPtr, ptr }

@_ZN7TypeInt3POSE = hidden global ptr null, align 8

; Function Attrs: mustprogress nounwind uwtable
define linkonce_odr hidden noundef ptr @_ZNK4Type11is_klassptrEv(ptr noundef nonnull align 8 dereferenceable(20) %0) #1 comdat align 2 {
  %2 = alloca ptr, align 8
  store ptr %0, ptr %2, align 8
  %3 = load ptr, ptr %2, align 8
  ret ptr %3
}

; Function Attrs: mustprogress nounwind uwtable
define linkonce_odr hidden noundef ptr @_ZNK4Type12isa_klassptrEv(ptr noundef nonnull align 8 dereferenceable(20) %0) #1 comdat align 2 {
  %2 = alloca ptr, align 8
  store ptr %0, ptr %2, align 8
  %3 = load ptr, ptr %2, align 8
  %4 = getelementptr inbounds %class.Type, ptr %3, i32 0, i32 2
  %5 = load i32, ptr %4, align 8
  %6 = icmp sge i32 %5, 24
  br i1 %6, label %7, label %12

7:                                                ; preds = %1
  %8 = getelementptr inbounds %class.Type, ptr %3, i32 0, i32 2
  %9 = load i32, ptr %8, align 8
  %10 = icmp sle i32 %9, 26
  br i1 %10, label %11, label %12

11:                                               ; preds = %7
  br label %13

12:                                               ; preds = %7, %1
  br label %13

13:                                               ; preds = %12, %11
  %14 = phi ptr [ %3, %11 ], [ null, %12 ]
  ret ptr %14
}

; Function Attrs: mustprogress nounwind uwtable
define linkonce_odr hidden noundef ptr @_ZNK15TypeAryKlassPtr4elemEv(ptr noundef nonnull align 8 dereferenceable(72) %0) #1 comdat align 2 {
  %2 = alloca ptr, align 8
  store ptr %0, ptr %2, align 8
  %3 = load ptr, ptr %2, align 8
  %4 = getelementptr inbounds %class.TypeAryKlassPtr, ptr %3, i32 0, i32 1
  %5 = load ptr, ptr %4, align 8
  ret ptr %5
}

; Function Attrs: mustprogress nounwind uwtable
define hidden noundef ptr @_ZNK15TypeAryKlassPtr16as_instance_typeEb(ptr noundef nonnull align 8 dereferenceable(72) %0, i1 noundef zeroext %1) unnamed_addr #1 align 2 {
  %3 = alloca ptr, align 8
  %4 = alloca i8, align 1
  %5 = alloca ptr, align 8
  %6 = alloca i8, align 1
  %7 = alloca ptr, align 8
  store ptr %0, ptr %3, align 8
  %8 = zext i1 %1 to i8
  store i8 %8, ptr %4, align 1
  %9 = load ptr, ptr %3, align 8
  %10 = load ptr, ptr %9, align 8
  %11 = getelementptr inbounds ptr, ptr %10, i64 30
  %12 = load ptr, ptr %11, align 8
  %13 = call noundef ptr %12(ptr noundef nonnull align 8 dereferenceable(72) %9)
  store ptr %13, ptr %5, align 8
  %14 = load ptr, ptr %9, align 8
  %15 = getelementptr inbounds ptr, ptr %14, i64 34
  %16 = load ptr, ptr %15, align 8
  %17 = call noundef zeroext i1 %16(ptr noundef nonnull align 8 dereferenceable(64) %9)
  %18 = zext i1 %17 to i8
  store i8 %18, ptr %6, align 1
  store ptr null, ptr %7, align 8
  %19 = call noundef ptr @_ZNK15TypeAryKlassPtr4elemEv(ptr noundef nonnull align 8 dereferenceable(72) %9)
  %20 = call noundef ptr @_ZNK4Type12isa_klassptrEv(ptr noundef nonnull align 8 dereferenceable(20) %19)
  %21 = icmp ne ptr %20, null
  br i1 %21, label %22, label %33

22:                                               ; preds = %2
  %23 = call noundef ptr @_ZNK15TypeAryKlassPtr4elemEv(ptr noundef nonnull align 8 dereferenceable(72) %9)
  %24 = call noundef ptr @_ZNK4Type11is_klassptrEv(ptr noundef nonnull align 8 dereferenceable(20) %23)
  %25 = load ptr, ptr %24, align 8
  %26 = getelementptr inbounds ptr, ptr %25, i64 37
  %27 = load ptr, ptr %26, align 8
  %28 = call noundef ptr %27(ptr noundef nonnull align 8 dereferenceable(64) %24, i1 noundef zeroext false)
  %29 = load ptr, ptr %28, align 8
  %30 = getelementptr inbounds ptr, ptr %29, i64 35
  %31 = load ptr, ptr %30, align 8
  %32 = call noundef ptr %31(ptr noundef nonnull align 8 dereferenceable(80) %28, i1 noundef zeroext false)
  store ptr %32, ptr %7, align 8
  store ptr null, ptr %5, align 8
  br label %35

33:                                               ; preds = %2
  %34 = call noundef ptr @_ZNK15TypeAryKlassPtr4elemEv(ptr noundef nonnull align 8 dereferenceable(72) %9)
  store ptr %34, ptr %7, align 8
  br label %35

35:                                               ; preds = %33, %22
  %36 = load ptr, ptr %7, align 8
  %37 = load ptr, ptr @_ZN7TypeInt3POSE, align 8
  %38 = call noundef ptr @_ZN7TypeAry4makeEPK4TypePK7TypeIntb(ptr noundef %36, ptr noundef %37, i1 noundef zeroext false)
  %39 = load ptr, ptr %5, align 8
  %40 = load i8, ptr %6, align 1
  %41 = trunc i8 %40 to i1
  %42 = call noundef ptr @_ZN10TypeAryPtr4makeEN7TypePtr3PTREPK7TypeAryP7ciKlassbiiPKS0_i(i32 noundef 5, ptr noundef %38, ptr noundef %39, i1 noundef zeroext %41, i32 noundef 0, i32 noundef 0, ptr noundef null, i32 noundef 2147483647)
  ret ptr %42
}