; Function Attrs: mustprogress nounwind uwtable
define hidden noundef ptr @_ZNK15TypeAryKlassPtr16as_instance_typeEb(ptr noundef nonnull align 8 dereferenceable(72) %0, i1 zeroext %1) unnamed_addr #0 align 2 {
  %3 = load ptr, ptr %0, align 8
  %4 = getelementptr inbounds i8, ptr %3, i64 240
  %5 = load ptr, ptr %4, align 8
  %6 = tail call noundef ptr %5(ptr noundef nonnull align 8 dereferenceable(72) %0) #17
  %7 = load ptr, ptr %0, align 8
  %8 = getelementptr inbounds i8, ptr %7, i64 272
  %9 = load ptr, ptr %8, align 8
  %10 = tail call noundef zeroext i1 %9(ptr noundef nonnull align 8 dereferenceable(64) %0) #17
  %11 = getelementptr inbounds i8, ptr %0, i64 64
  %12 = load ptr, ptr %11, align 8
  %13 = getelementptr inbounds i8, ptr %12, i64 16
  %14 = load i32, ptr %13, align 8
  %15 = add i32 %14, -27
  %or.cond.i = icmp ult i32 %15, -3
  %.not4 = icmp eq ptr %12, null
  %.not = or i1 %.not4, %or.cond.i
  br i1 %.not, label %25, label %16

16:                                               ; preds = %2
  %17 = load ptr, ptr %12, align 8
  %18 = getelementptr inbounds i8, ptr %17, i64 296
  %19 = load ptr, ptr %18, align 8
  %20 = tail call noundef ptr %19(ptr noundef nonnull align 8 dereferenceable(64) %12, i1 noundef zeroext false) #17
  %21 = load ptr, ptr %20, align 8
  %22 = getelementptr inbounds i8, ptr %21, i64 280
  %23 = load ptr, ptr %22, align 8
  %24 = tail call noundef ptr %23(ptr noundef nonnull align 8 dereferenceable(80) %20, i1 noundef zeroext false) #17
  br label %25

25:                                               ; preds = %2, %16
  %.03 = phi ptr [ null, %16 ], [ %6, %2 ]
  %.0 = phi ptr [ %24, %16 ], [ %12, %2 ]
  %26 = load ptr, ptr @_ZN7TypeInt3POSE, align 8
  %27 = tail call noundef ptr @_ZN7TypeAry4makeEPK4TypePK7TypeIntb(ptr noundef %.0, ptr noundef %26, i1 noundef zeroext false)
  %28 = tail call noundef ptr @_ZN10TypeAryPtr4makeEN7TypePtr3PTREPK7TypeAryP7ciKlassbiiPKS0_i(i32 noundef 5, ptr noundef %27, ptr noundef %.03, i1 noundef zeroext %10, i32 noundef 0, i32 noundef 0, ptr noundef null, i32 noundef 2147483647)
  ret ptr %28
}